; Function Attrs: mustprogress nounwind uwtable
define internal void @_ZZN7rocksdb22PessimisticTransaction9LockBatchEPNS_10WriteBatchEPNS_11LockTrackerEEN7HandlerD2Ev(ptr noundef nonnull align 8 dereferenceable(56) %this) unnamed_addr #0 align 2 personality ptr @__gxx_personality_v0 {
entry:
  store ptr getelementptr inbounds ({ [25 x ptr] }, ptr @_ZTVZN7rocksdb22PessimisticTransaction9LockBatchEPNS_10WriteBatchEPNS_11LockTrackerEE7Handler, i64 0, i32 0, i64 2), ptr %this, align 8
  %keys_ = getelementptr inbounds i8, ptr %this, i64 8
  %_M_parent.i.i.i.i = getelementptr inbounds i8, ptr %this, i64 24
  %0 = load ptr, ptr %_M_parent.i.i.i.i, align 8
  invoke void @_ZNSt8_Rb_treeIjSt4pairIKjSt3setINSt7__cxx1112basic_stringIcSt11char_traitsIcESaIcEEESt4lessIS8_ESaIS8_EEESt10_Select1stISD_ES9_IjESaISD_EE8_M_eraseEPSt13_Rb_tree_nodeISD_E(ptr noundef nonnull align 8 dereferenceable(48) %keys_, ptr noundef %0)
          to label %_ZNSt3mapIjSt3setINSt7__cxx1112basic_stringIcSt11char_traitsIcESaIcEEESt4lessIS6_ESaIS6_EES7_IjESaISt4pairIKjSA_EEED2Ev.exit unwind label %terminate.lpad.i.i

terminate.lpad.i.i:                               ; preds = %entry
  %1 = landingpad { ptr, i32 }
          catch ptr null
  %2 = extractvalue { ptr, i32 } %1, 0
  tail call void @__clang_call_terminate(ptr %2) #23
  unreachable

_ZNSt3mapIjSt3setINSt7__cxx1112basic_stringIcSt11char_traitsIcESaIcEEESt4lessIS6_ESaIS6_EES7_IjESaISt4pairIKjSA_EEED2Ev.exit: ; preds = %entry
  tail call void @_ZN7rocksdb10WriteBatch7HandlerD2Ev(ptr noundef nonnull align 8 dereferenceable(8) %this) #22
  ret void
}